; Function Attrs: mustprogress nounwind uwtable
define void @_ZNK5faiss12IndexLattice9sa_encodeElPKfPh(ptr noundef nonnull align 8 dereferenceable(344) %0, i64 noundef %1, ptr noundef %2, ptr noundef %3) unnamed_addr #4 align 2 {
  %5 = alloca i64, align 8
  %6 = alloca ptr, align 8
  %7 = alloca ptr, align 8
  %8 = alloca ptr, align 8
  %9 = alloca ptr, align 8
  %10 = alloca i64, align 8
  store i64 %1, ptr %5, align 8, !tbaa !65
  store ptr %2, ptr %6, align 8, !tbaa !66
  store ptr %3, ptr %7, align 8, !tbaa !67
  call void @llvm.lifetime.start.p0(i64 8, ptr nonnull %8) #17
  %11 = getelementptr inbounds nuw i8, ptr %0, i64 320
  %12 = load ptr, ptr %11, align 8, !tbaa !7
  store ptr %12, ptr %8, align 8, !tbaa !66
  call void @llvm.lifetime.start.p0(i64 8, ptr nonnull %9) #17
  %13 = getelementptr inbounds nuw i8, ptr %0, i64 72
  %14 = load i32, ptr %13, align 8, !tbaa !17
  %15 = sext i32 %14 to i64
  %16 = getelementptr inbounds float, ptr %12, i64 %15
  store ptr %16, ptr %9, align 8, !tbaa !66
  call void @llvm.lifetime.start.p0(i64 8, ptr nonnull %10) #17
  %17 = getelementptr inbounds nuw i8, ptr %0, i64 312
  %18 = load i32, ptr %17, align 8, !tbaa !68
  %19 = zext nneg i32 %18 to i64
  %20 = shl nuw i64 1, %19
  store i64 %20, ptr %10, align 8, !tbaa !65
  call void (ptr, i32, ptr, ...) @__kmpc_fork_call(ptr nonnull @2, i32 7, ptr nonnull @_ZNK5faiss12IndexLattice9sa_encodeElPKfPh.omp_outlined, ptr nonnull %5, ptr nonnull %7, ptr nonnull %0, ptr nonnull %6, ptr nonnull %8, ptr nonnull %10, ptr nonnull %9)
  call void @llvm.lifetime.end.p0(i64 8, ptr nonnull %10) #17
  call void @llvm.lifetime.end.p0(i64 8, ptr nonnull %9) #17
  call void @llvm.lifetime.end.p0(i64 8, ptr nonnull %8) #17
  ret void
}